; Function Attrs: nounwind uwtable
define range(i32 -1, 1) i32 @H5HF__hdr_incr(ptr noundef %0) local_unnamed_addr #0 {
  %2 = load i8, ptr @H5HF_init_g, align 1, !tbaa !3, !range !7, !noundef !8
  %3 = trunc nuw i8 %2 to i1
  %4 = load i8, ptr @H5_libterm_g, align 1, !range !7
  %5 = trunc nuw i8 %4 to i1
  %6 = xor i1 %5, true
  %7 = select i1 %3, i1 true, i1 %6
  br i1 %7, label %8, label %22, !prof !9

8:                                                ; preds = %1
  %9 = getelementptr inbounds nuw i8, ptr %0, i64 568
  %10 = load i64, ptr %9, align 8, !tbaa !70
  %11 = icmp eq i64 %10, 0
  br i1 %11, label %12, label %19

12:                                               ; preds = %8
  %13 = tail call i32 @H5AC_pin_protected_entry(ptr noundef nonnull %0) #7
  %14 = icmp slt i32 %13, 0
  br i1 %14, label %15, label %._crit_edge

._crit_edge:                                      ; preds = %12
  %.pre = load i64, ptr %9, align 8, !tbaa !70
  br label %19

15:                                               ; preds = %12
  %16 = load i64, ptr @H5E_HEAP_g, align 8, !tbaa !10
  %17 = load i64, ptr @H5E_CANTPIN_g, align 8, !tbaa !10
  %18 = tail call i32 (ptr, ptr, i32, i64, i64, ptr, ...) @H5E_printf_stack(ptr noundef nonnull @.str, ptr noundef nonnull @__func__.H5HF__hdr_incr, i32 noundef 549, i64 noundef %16, i64 noundef %17, ptr noundef nonnull @.str.22) #7
  br label %22

19:                                               ; preds = %._crit_edge, %8
  %20 = phi i64 [ %.pre, %._crit_edge ], [ %10, %8 ]
  %21 = add i64 %20, 1
  store i64 %21, ptr %9, align 8, !tbaa !70
  br label %22

22:                                               ; preds = %15, %19, %1
  %.0 = phi i32 [ -1, %15 ], [ 0, %19 ], [ 0, %1 ]
  ret i32 %.0
}